; Function Attrs: mustprogress uwtable
define hidden void @_ZN5osgeo4proj14DiskChunkCache7prepareEPKc(ptr dead_on_unwind noalias writable writeonly sret(%"class.std::unique_ptr.48") align 8 captures(none) %0, ptr noundef nonnull readonly align 8 captures(none) dereferenceable(56) %1, ptr noundef %2) local_unnamed_addr #3 align 2 personality ptr @__gxx_personality_v0 {
  %4 = alloca ptr, align 8
  call void @llvm.lifetime.start.p0(i64 8, ptr nonnull %4) #30
  store ptr null, ptr %4, align 8, !tbaa !99
  %5 = getelementptr inbounds nuw i8, ptr %1, i64 40
  %6 = load ptr, ptr %5, align 8, !tbaa !77
  %7 = call i32 @sqlite3_prepare_v2(ptr noundef %6, ptr noundef %2, i32 noundef -1, ptr noundef nonnull %4, ptr noundef null)
  %8 = load ptr, ptr %4, align 8, !tbaa !99
  %.not = icmp eq ptr %8, null
  br i1 %.not, label %9, label %13

9:                                                ; preds = %3
  %10 = load ptr, ptr %1, align 8, !tbaa !58
  %11 = load ptr, ptr %5, align 8, !tbaa !77
  %12 = call ptr @sqlite3_errmsg(ptr noundef %11)
  call void (ptr, i32, ptr, ...) @_Z6pj_logP6pj_ctxiPKcz(ptr noundef %10, i32 noundef 1, ptr noundef nonnull @.str.3, ptr noundef %12)
  br label %17

13:                                               ; preds = %3
  %14 = call noalias noundef nonnull dereferenceable(16) ptr @_Znwm(i64 noundef 16) #32
  invoke void @_ZN5osgeo4proj15SQLiteStatementC1EP12sqlite3_stmt(ptr noundef nonnull align 8 dereferenceable(16) %14, ptr noundef nonnull %8)
          to label %17 unwind label %15

15:                                               ; preds = %13
  %16 = landingpad { ptr, i32 }
          cleanup
  call void @_ZdlPvm(ptr noundef nonnull %14, i64 noundef 16) #31
  call void @llvm.lifetime.end.p0(i64 8, ptr nonnull %4) #30
  resume { ptr, i32 } %16

17:                                               ; preds = %13, %9
  %storemerge = phi ptr [ null, %9 ], [ %14, %13 ]
  store ptr %storemerge, ptr %0, align 8, !tbaa !81
  call void @llvm.lifetime.end.p0(i64 8, ptr nonnull %4) #30
  ret void
}